; Function Attrs: mustprogress nounwind uwtable
define noundef ptr @_ZN6casadi13ShellCompiler12get_functionERKNSt7__cxx1112basic_stringIcSt11char_traitsIcESaIcEEE(ptr noundef nonnull readonly align 8 captures(none) dereferenceable(304) %0, ptr noundef nonnull readonly align 8 captures(none) dereferenceable(32) %1) unnamed_addr #5 align 2 {
  %3 = getelementptr inbounds nuw i8, ptr %0, i64 296
  %4 = load ptr, ptr %3, align 8, !tbaa !25
  %5 = load ptr, ptr %1, align 8, !tbaa !13
  %6 = tail call ptr @dlsym(ptr noundef %4, ptr noundef %5) #27
  %7 = tail call ptr @dlerror() #27
  %.not = icmp eq ptr %7, null
  br i1 %.not, label %10, label %8

8:                                                ; preds = %2
  %9 = tail call ptr @dlerror() #27
  br label %10

10:                                               ; preds = %8, %2
  %.0 = phi ptr [ null, %8 ], [ %6, %2 ]
  ret ptr %.0
}